	.file	"ctattack.c"
	.intel_syntax noprefix
	.text
.Ltext0:
	.globl	timestamp_weak
	.type	timestamp_weak, @function
timestamp_weak:
.LFB2:
	.file 1 "src/ctattack.c"
	.loc 1 8 0
	.cfi_startproc
	push	rbp
	.cfi_def_cfa_offset 16
	.cfi_offset 6, -16
	mov	rbp, rsp
	.cfi_def_cfa_register 6
	.loc 1 11 0
#APP
# 11 "src/ctattack.c" 1
	.byte 15;.byte 49
# 0 "" 2
#NO_APP
	mov	DWORD PTR [rbp-8], eax
	mov	DWORD PTR [rbp-4], edx
	.loc 1 12 0
	mov	eax, DWORD PTR [rbp-8]
	.loc 1 13 0
	pop	rbp
	.cfi_def_cfa 7, 8
	ret
	.cfi_endproc
.LFE2:
	.size	timestamp_weak, .-timestamp_weak
	.globl	timestamp
	.type	timestamp, @function
timestamp:
.LFB3:
	.loc 1 15 0
	.cfi_startproc
	push	rbp
	.cfi_def_cfa_offset 16
	.cfi_offset 6, -16
	mov	rbp, rsp
	.cfi_def_cfa_register 6
	push	rbx
	.cfi_offset 3, -24
	.loc 1 21 0
#APP
# 21 "src/ctattack.c" 1
	CPUID
	RDTSC
	mov %edx, edi
	mov %eax, esi
	CPUID
	
# 0 "" 2
#NO_APP
	mov	DWORD PTR [rbp-16], edi
	mov	DWORD PTR [rbp-12], esi
	.loc 1 26 0
	mov	eax, DWORD PTR [rbp-12]
	.loc 1 27 0
	pop	rbx
	pop	rbp
	.cfi_def_cfa 7, 8
	ret
	.cfi_endproc
.LFE3:
	.size	timestamp, .-timestamp
	.globl	timestamp_start
	.type	timestamp_start, @function
timestamp_start:
.LFB4:
	.loc 1 29 0
	.cfi_startproc
	push	rbp
	.cfi_def_cfa_offset 16
	.cfi_offset 6, -16
	mov	rbp, rsp
	.cfi_def_cfa_register 6
	push	rbx
	.cfi_offset 3, -24
	.loc 1 35 0
#APP
# 35 "src/ctattack.c" 1
	.align 16
	CPUID
	CPUID
	CPUID
	RDTSCP
	mov %edx, edi
	mov %eax, esi
	
# 0 "" 2
#NO_APP
	mov	DWORD PTR [rbp-16], edi
	mov	DWORD PTR [rbp-12], esi
	.loc 1 42 0
	mov	eax, DWORD PTR [rbp-16]
	sal	rax, 32
	mov	rdx, rax
	mov	eax, DWORD PTR [rbp-12]
	or	rax, rdx
	.loc 1 43 0
	pop	rbx
	pop	rbp
	.cfi_def_cfa 7, 8
	ret
	.cfi_endproc
.LFE4:
	.size	timestamp_start, .-timestamp_start
	.globl	timestamp_stop
	.type	timestamp_stop, @function
timestamp_stop:
.LFB5:
	.loc 1 45 0
	.cfi_startproc
	push	rbp
	.cfi_def_cfa_offset 16
	.cfi_offset 6, -16
	mov	rbp, rsp
	.cfi_def_cfa_register 6
	push	rbx
	.cfi_offset 3, -24
	.loc 1 51 0
#APP
# 51 "src/ctattack.c" 1
	RDTSCP
	mov %edx, edi
	mov %eax, esi
	CPUID
	
# 0 "" 2
#NO_APP
	mov	DWORD PTR [rbp-16], edi
	mov	DWORD PTR [rbp-12], esi
	.loc 1 55 0
	mov	eax, DWORD PTR [rbp-16]
	sal	rax, 32
	mov	rdx, rax
	mov	eax, DWORD PTR [rbp-12]
	or	rax, rdx
	.loc 1 56 0
	pop	rbx
	pop	rbp
	.cfi_def_cfa 7, 8
	ret
	.cfi_endproc
.LFE5:
	.size	timestamp_stop, .-timestamp_stop
	.globl	ptr2bin
	.type	ptr2bin, @function
ptr2bin:
.LFB6:
	.loc 1 62 0
	.cfi_startproc
	push	rbp
	.cfi_def_cfa_offset 16
	.cfi_offset 6, -16
	mov	rbp, rsp
	.cfi_def_cfa_register 6
	mov	QWORD PTR [rbp-24], rdi
	mov	QWORD PTR [rbp-32], rsi
	.loc 1 63 0
	mov	rax, QWORD PTR [rbp-24]
	mov	QWORD PTR [rbp-8], rax
.LBB2:
	.loc 1 64 0
	mov	DWORD PTR [rbp-12], 0
	jmp	.L10
.L13:
	.loc 1 65 0
	mov	rax, QWORD PTR [rbp-8]
	and	eax, 1
	test	rax, rax
	je	.L11
	.loc 1 65 0 is_stmt 0 discriminator 1
	mov	eax, DWORD PTR [rbp-12]
	movsx	rdx, eax
	mov	rax, QWORD PTR [rbp-32]
	add	rax, rdx
	mov	BYTE PTR [rax], 49
	jmp	.L12
.L11:
	.loc 1 65 0 discriminator 2
	mov	eax, DWORD PTR [rbp-12]
	movsx	rdx, eax
	mov	rax, QWORD PTR [rbp-32]
	add	rax, rdx
	mov	BYTE PTR [rax], 48
.L12:
	.loc 1 66 0 is_stmt 1 discriminator 2
	shr	QWORD PTR [rbp-8]
	.loc 1 64 0 discriminator 2
	add	DWORD PTR [rbp-12], 1
.L10:
	.loc 1 64 0 is_stmt 0 discriminator 1
	cmp	DWORD PTR [rbp-12], 63
	jle	.L13
.LBE2:
	.loc 1 68 0 is_stmt 1
	mov	rax, QWORD PTR [rbp-32]
	add	rax, 64
	mov	BYTE PTR [rax], 0
	.loc 1 69 0
	nop
	pop	rbp
	.cfi_def_cfa 7, 8
	ret
	.cfi_endproc
.LFE6:
	.size	ptr2bin, .-ptr2bin
	.globl	printPtr2bin
	.type	printPtr2bin, @function
printPtr2bin:
.LFB7:
	.loc 1 71 0
	.cfi_startproc
	push	rbp
	.cfi_def_cfa_offset 16
	.cfi_offset 6, -16
	mov	rbp, rsp
	.cfi_def_cfa_register 6
	sub	rsp, 112
	mov	QWORD PTR [rbp-104], rdi
	.loc 1 71 0
	mov	rax, QWORD PTR fs:40
	mov	QWORD PTR [rbp-8], rax
	xor	eax, eax
	.loc 1 73 0
	lea	rdx, [rbp-80]
	mov	rax, QWORD PTR [rbp-104]
	mov	rsi, rdx
	mov	rdi, rax
	call	ptr2bin
.LBB3:
	.loc 1 74 0
	mov	DWORD PTR [rbp-88], 0
	jmp	.L15
.L18:
.LBB4:
	.loc 1 75 0
	mov	DWORD PTR [rbp-84], 0
	jmp	.L16
.L17:
	.loc 1 76 0 discriminator 3
	mov	edx, DWORD PTR [rbp-88]
	mov	eax, 0
	sub	eax, edx
	sal	eax, 3
	sub	eax, DWORD PTR [rbp-84]
	add	eax, 63
	cdqe
	movzx	eax, BYTE PTR [rbp-80+rax]
	movsx	eax, al
	mov	edi, eax
	call	putchar
	.loc 1 75 0 discriminator 3
	add	DWORD PTR [rbp-84], 1
.L16:
	.loc 1 75 0 is_stmt 0 discriminator 1
	cmp	DWORD PTR [rbp-84], 7
	jle	.L17
.LBE4:
	.loc 1 78 0 is_stmt 1 discriminator 2
	mov	edi, 32
	call	putchar
	.loc 1 74 0 discriminator 2
	add	DWORD PTR [rbp-88], 1
.L15:
	.loc 1 74 0 is_stmt 0 discriminator 1
	cmp	DWORD PTR [rbp-88], 7
	jle	.L18
.LBE3:
	.loc 1 80 0 is_stmt 1
	mov	edi, 10
	call	putchar
	.loc 1 81 0
	nop
	mov	rax, QWORD PTR [rbp-8]
	xor	rax, QWORD PTR fs:40
	je	.L19
	call	__stack_chk_fail
.L19:
	leave
	.cfi_def_cfa 7, 8
	ret
	.cfi_endproc
.LFE7:
	.size	printPtr2bin, .-printPtr2bin
	.type	rand_int, @function
rand_int:
.LFB8:
	.loc 1 94 0
	.cfi_startproc
	push	rbp
	.cfi_def_cfa_offset 16
	.cfi_offset 6, -16
	mov	rbp, rsp
	.cfi_def_cfa_register 6
	sub	rsp, 32
	mov	DWORD PTR [rbp-20], edi
	.loc 1 95 0
	mov	eax, 2147483647
	cdq
	idiv	DWORD PTR [rbp-20]
	mov	eax, edx
	mov	edx, 2147483647
	sub	edx, eax
	mov	eax, edx
	mov	DWORD PTR [rbp-8], eax
.L21:
	.loc 1 98 0 discriminator 1
	call	rand
	mov	DWORD PTR [rbp-4], eax
	.loc 1 100 0 discriminator 1
	mov	eax, DWORD PTR [rbp-4]
	cmp	eax, DWORD PTR [rbp-8]
	jge	.L21
	.loc 1 101 0
	mov	eax, DWORD PTR [rbp-4]
	cdq
	idiv	DWORD PTR [rbp-20]
	mov	eax, edx
	.loc 1 102 0
	leave
	.cfi_def_cfa 7, 8
	ret
	.cfi_endproc
.LFE8:
	.size	rand_int, .-rand_int
	.globl	sattolo_shuffle
	.type	sattolo_shuffle, @function
sattolo_shuffle:
.LFB9:
	.loc 1 106 0
	.cfi_startproc
	push	rbp
	.cfi_def_cfa_offset 16
	.cfi_offset 6, -16
	mov	rbp, rsp
	.cfi_def_cfa_register 6
	sub	rsp, 32
	mov	QWORD PTR [rbp-24], rdi
	mov	DWORD PTR [rbp-28], esi
	.loc 1 109 0
	mov	eax, DWORD PTR [rbp-28]
	sub	eax, 1
	mov	DWORD PTR [rbp-16], eax
	jmp	.L24
.L25:
	.loc 1 110 0 discriminator 3
	mov	eax, DWORD PTR [rbp-16]
	add	eax, 1
	mov	edi, eax
	call	rand_int
	mov	DWORD PTR [rbp-12], eax
	.loc 1 111 0 discriminator 3
	mov	eax, DWORD PTR [rbp-12]
	cdqe
	lea	rdx, [0+rax*8]
	mov	rax, QWORD PTR [rbp-24]
	add	rax, rdx
	mov	rax, QWORD PTR [rax]
	mov	QWORD PTR [rbp-8], rax
	.loc 1 112 0 discriminator 3
	mov	eax, DWORD PTR [rbp-12]
	cdqe
	lea	rdx, [0+rax*8]
	mov	rax, QWORD PTR [rbp-24]
	add	rdx, rax
	mov	eax, DWORD PTR [rbp-16]
	cdqe
	lea	rcx, [0+rax*8]
	mov	rax, QWORD PTR [rbp-24]
	add	rax, rcx
	mov	rax, QWORD PTR [rax]
	mov	QWORD PTR [rdx], rax
	.loc 1 113 0 discriminator 3
	mov	eax, DWORD PTR [rbp-16]
	cdqe
	lea	rdx, [0+rax*8]
	mov	rax, QWORD PTR [rbp-24]
	add	rdx, rax
	mov	rax, QWORD PTR [rbp-8]
	mov	QWORD PTR [rdx], rax
	.loc 1 109 0 discriminator 3
	sub	DWORD PTR [rbp-16], 1
.L24:
	.loc 1 109 0 is_stmt 0 discriminator 1
	cmp	DWORD PTR [rbp-16], 0
	jg	.L25
	.loc 1 116 0 is_stmt 1
	nop
	leave
	.cfi_def_cfa 7, 8
	ret
	.cfi_endproc
.LFE9:
	.size	sattolo_shuffle, .-sattolo_shuffle
.Letext0:
	.section	.note.GNU-stack,"",@progbits
